target datalayout = "e-m:e-p270:32:32-p271:32:32-p272:64:64-i64:64-i128:128-f80:128-n8:16:32:64-S128"
target triple = "x86_64-pc-linux-gnu"

%struct.nameData = type { [64 x i8] }
%struct.RelationData = type { %struct.RelFileLocator, ptr, i32, i32, i8, i8, i8, i8, i8, i32, i32, i32, i32, ptr, ptr, i32, %struct.LockInfoData, ptr, ptr, ptr, ptr, ptr, i8, ptr, ptr, ptr, ptr, ptr, ptr, i32, ptr, i8, ptr, ptr, i32, i8, i32, ptr, i8, ptr, ptr, ptr, ptr, ptr, ptr, ptr, i32, ptr, ptr, ptr, ptr, ptr, ptr, ptr, ptr, ptr, ptr, ptr, ptr, ptr, ptr, ptr, ptr, ptr, ptr, ptr, i32, i8, ptr }
%struct.RelFileLocator = type { i32, i32, i32 }
%struct.LockInfoData = type { %struct.LockRelId }
%struct.LockRelId = type { i32, i32 }
%struct.FormData_pg_class = type { i32, %struct.nameData, i32, i32, i32, i32, i32, i32, i32, i32, float, i32, i32, i8, i8, i8, i8, i16, i16, i8, i8, i8, i8, i8, i8, i8, i8, i32, i32, i32 }
%struct.HeapTupleData = type { i32, %struct.ItemPointerData, i32, ptr }
%struct.ItemPointerData = type { %struct.BlockIdData, i16 }
%struct.BlockIdData = type { i16, i16 }
%struct.HeapTupleHeaderData = type { %union.anon, %struct.ItemPointerData, i16, i16, i8, [0 x i8] }
%union.anon = type { %struct.HeapTupleFields }
%struct.HeapTupleFields = type { i32, i32, %union.anon.0 }
%union.anon.0 = type { i32 }
%struct.FormData_pg_type = type { i32, %struct.nameData, i32, i32, i16, i8, i8, i8, i8, i8, i8, i32, i32, i32, i32, i32, i32, i32, i32, i32, i32, i32, i8, i8, i8, i32, i32, i32, i32 }

@.str.2 = private unnamed_addr constant [12 x i8] c"tablecmds.c\00", align 1
@.str.35 = private unnamed_addr constant [41 x i8] c"type %s is the row type of another table\00", align 1
@.str.36 = private unnamed_addr constant [78 x i8] c"A typed table must use a stand-alone composite type created with CREATE TYPE.\00", align 1
@__func__.check_of_type = private unnamed_addr constant [14 x i8] c"check_of_type\00", align 1
@.str.37 = private unnamed_addr constant [32 x i8] c"type %s is not a composite type\00", align 1

; Function Attrs: inlinehint nounwind uwtable
define internal ptr @GETSTRUCT(ptr noundef %0) #6 {
  %2 = alloca ptr, align 8
  store ptr %0, ptr %2, align 8
  %3 = load ptr, ptr %2, align 8
  %4 = getelementptr inbounds nuw %struct.HeapTupleData, ptr %3, i32 0, i32 3
  %5 = load ptr, ptr %4, align 8
  %6 = load ptr, ptr %2, align 8
  %7 = getelementptr inbounds nuw %struct.HeapTupleData, ptr %6, i32 0, i32 3
  %8 = load ptr, ptr %7, align 8
  %9 = getelementptr inbounds nuw %struct.HeapTupleHeaderData, ptr %8, i32 0, i32 4
  %10 = load i8, ptr %9, align 2
  %11 = zext i8 %10 to i32
  %12 = sext i32 %11 to i64
  %13 = getelementptr inbounds i8, ptr %5, i64 %12
  ret ptr %13
}

; Function Attrs: nounwind uwtable
define dso_local void @check_of_type(ptr noundef %0) #0 {
  %2 = alloca ptr, align 8
  %3 = alloca ptr, align 8
  %4 = alloca i8, align 1
  %5 = alloca ptr, align 8
  store ptr %0, ptr %2, align 8
  call void @llvm.lifetime.start.p0(i64 8, ptr %3) #12
  %6 = load ptr, ptr %2, align 8
  %7 = call ptr @GETSTRUCT(ptr noundef %6)
  store ptr %7, ptr %3, align 8
  call void @llvm.lifetime.start.p0(i64 1, ptr %4) #12
  store i8 0, ptr %4, align 1
  %8 = load ptr, ptr %3, align 8
  %9 = getelementptr inbounds nuw %struct.FormData_pg_type, ptr %8, i32 0, i32 6
  %10 = load i8, ptr %9, align 1
  %11 = sext i8 %10 to i32
  %12 = icmp eq i32 %11, 99
  br i1 %12, label %13, label %47

13:                                               ; preds = %1
  call void @llvm.lifetime.start.p0(i64 8, ptr %5) #12
  %14 = load ptr, ptr %3, align 8
  %15 = getelementptr inbounds nuw %struct.FormData_pg_type, ptr %14, i32 0, i32 11
  %16 = load i32, ptr %15, align 4
  %17 = call ptr @relation_open(i32 noundef %16, i32 noundef 1)
  store ptr %17, ptr %5, align 8
  %18 = load ptr, ptr %5, align 8
  %19 = getelementptr inbounds nuw %struct.RelationData, ptr %18, i32 0, i32 13
  %20 = load ptr, ptr %19, align 8
  %21 = getelementptr inbounds nuw %struct.FormData_pg_class, ptr %20, i32 0, i32 16
  %22 = load i8, ptr %21, align 1
  %23 = sext i8 %22 to i32
  %24 = icmp eq i32 %23, 99
  %25 = zext i1 %24 to i8
  store i8 %25, ptr %4, align 1
  %26 = load ptr, ptr %5, align 8
  call void @relation_close(ptr noundef %26, i32 noundef 0)
  %27 = load i8, ptr %4, align 1, !range !6, !noundef !7
  %28 = trunc i8 %27 to i1
  br i1 %28, label %46, label %29

29:                                               ; preds = %13
  br label %30

30:                                               ; preds = %29
  br i1 true, label %31, label %33

31:                                               ; preds = %30
  %32 = call zeroext i1 @errstart_cold(i32 noundef 21, ptr noundef null) #13
  br i1 %32, label %35, label %43

33:                                               ; preds = %30
  %34 = call zeroext i1 @errstart(i32 noundef 21, ptr noundef null)
  br i1 %34, label %35, label %43

35:                                               ; preds = %33, %31
  %36 = call i32 @errcode(i32 noundef 151027844)
  %37 = load ptr, ptr %3, align 8
  %38 = getelementptr inbounds nuw %struct.FormData_pg_type, ptr %37, i32 0, i32 0
  %39 = load i32, ptr %38, align 4
  %40 = call ptr @format_type_be(i32 noundef %39)
  %41 = call i32 (ptr, ...) @errmsg(ptr noundef @.str.35, ptr noundef %40)
  %42 = call i32 (ptr, ...) @errdetail(ptr noundef @.str.36)
  call void @errfinish(ptr noundef @.str.2, i32 noundef 7071, ptr noundef @__func__.check_of_type)
  br label %43

43:                                               ; preds = %35, %33, %31
  unreachable

44:                                               ; No predecessors!
  br label %45

45:                                               ; preds = %44
  br label %46

46:                                               ; preds = %45, %13
  call void @llvm.lifetime.end.p0(i64 8, ptr %5) #12
  br label %63

47:                                               ; preds = %1
  br label %48

48:                                               ; preds = %47
  br i1 true, label %49, label %51

49:                                               ; preds = %48
  %50 = call zeroext i1 @errstart_cold(i32 noundef 21, ptr noundef null) #13
  br i1 %50, label %53, label %60

51:                                               ; preds = %48
  %52 = call zeroext i1 @errstart(i32 noundef 21, ptr noundef null)
  br i1 %52, label %53, label %60

53:                                               ; preds = %51, %49
  %54 = call i32 @errcode(i32 noundef 151027844)
  %55 = load ptr, ptr %3, align 8
  %56 = getelementptr inbounds nuw %struct.FormData_pg_type, ptr %55, i32 0, i32 0
  %57 = load i32, ptr %56, align 4
  %58 = call ptr @format_type_be(i32 noundef %57)
  %59 = call i32 (ptr, ...) @errmsg(ptr noundef @.str.37, ptr noundef %58)
  call void @errfinish(ptr noundef @.str.2, i32 noundef 7077, ptr noundef @__func__.check_of_type)
  br label %60

60:                                               ; preds = %53, %51, %49
  unreachable

61:                                               ; No predecessors!
  br label %62

62:                                               ; preds = %61
  br label %63

63:                                               ; preds = %62, %46
  call void @llvm.lifetime.end.p0(i64 1, ptr %4) #12
  call void @llvm.lifetime.end.p0(i64 8, ptr %3) #12
  ret void
}