; Function Attrs: nounwind uwtable
define dso_local void @check_of_type(ptr noundef readonly captures(none) %0) local_unnamed_addr #0 {
  %2 = getelementptr i8, ptr %0, i64 16
  %.val = load ptr, ptr %2, align 8
  %3 = getelementptr inbounds nuw i8, ptr %.val, i64 22
  %4 = load i8, ptr %3, align 2
  %5 = zext i8 %4 to i64
  %6 = getelementptr inbounds nuw i8, ptr %.val, i64 %5
  %7 = getelementptr inbounds nuw i8, ptr %6, i64 79
  %8 = load i8, ptr %7, align 1
  %9 = icmp eq i8 %8, 99
  br i1 %9, label %10, label %27

10:                                               ; preds = %1
  %11 = getelementptr inbounds nuw i8, ptr %6, i64 84
  %12 = load i32, ptr %11, align 4
  %13 = tail call ptr @relation_open(i32 noundef %12, i32 noundef 1) #15
  %14 = getelementptr inbounds nuw i8, ptr %13, i64 56
  %15 = load ptr, ptr %14, align 8
  %16 = getelementptr inbounds nuw i8, ptr %15, i64 115
  %17 = load i8, ptr %16, align 1
  %18 = icmp eq i8 %17, 99
  tail call void @relation_close(ptr noundef %13, i32 noundef 0) #15
  br i1 %18, label %26, label %19

19:                                               ; preds = %10
  %20 = tail call zeroext i1 @errstart_cold(i32 noundef 21, ptr noundef null) #16
  tail call void @llvm.assume(i1 %20)
  %21 = tail call i32 @errcode(i32 noundef 151027844) #15
  %22 = load i32, ptr %6, align 4
  %23 = tail call ptr @format_type_be(i32 noundef %22) #15
  %24 = tail call i32 (ptr, ...) @errmsg(ptr noundef nonnull @.str.35, ptr noundef %23) #15
  %25 = tail call i32 (ptr, ...) @errdetail(ptr noundef nonnull @.str.36) #15
  tail call void @errfinish(ptr noundef nonnull @.str.2, i32 noundef 7071, ptr noundef nonnull @__func__.check_of_type) #15
  unreachable

26:                                               ; preds = %10
  ret void

27:                                               ; preds = %1
  %28 = tail call zeroext i1 @errstart_cold(i32 noundef 21, ptr noundef null) #16
  tail call void @llvm.assume(i1 %28)
  %29 = tail call i32 @errcode(i32 noundef 151027844) #15
  %30 = load i32, ptr %6, align 4
  %31 = tail call ptr @format_type_be(i32 noundef %30) #15
  %32 = tail call i32 (ptr, ...) @errmsg(ptr noundef nonnull @.str.37, ptr noundef %31) #15
  tail call void @errfinish(ptr noundef nonnull @.str.2, i32 noundef 7077, ptr noundef nonnull @__func__.check_of_type) #15
  unreachable
}